Certificate:
    Data:
        Version: 3 (0x2)
        Serial Number:
            39:57:6d:53:4a:81:8c:11:8c:63:e2:40:e3:ff:66:7f:18:7f:c0:50
        Signature Algorithm: sha256WithRSAEncryption
        Issuer: C=US, ST=CA, L=San Luis Obispo, O=IFD3F Technologies, CN=IFD3F Technologies/emailAddress=astrid@astrid.tech
        Validity
            Not Before: Jan 19 09:40:41 2023 GMT
            Not After : Jan 18 09:40:41 2028 GMT
        Subject: CN=IFD3F Technologies Intermediate Authority 2023
        Subject Public Key Info:
            Public Key Algorithm: rsaEncryption
                Public-Key: (2048 bit)
                Modulus:
                    00:f1:46:77:fc:86:b0:57:62:03:47:62:70:d1:53:
                    ef:df:66:72:00:bd:61:70:6f:9b:f7:93:30:58:ab:
                    5e:26:08:05:eb:e5:4e:99:75:cf:dd:d1:7c:8f:a0:
                    b4:35:fb:ab:06:db:03:2c:30:25:01:23:3b:cb:0c:
                    a4:1c:0c:97:1b:b1:6c:5f:9f:12:1f:f0:b6:be:bf:
                    24:7d:df:37:d4:cf:9c:32:22:b4:13:cd:d4:b9:59:
                    af:04:4c:9c:41:0a:6b:17:db:75:c1:d8:32:b5:17:
                    30:43:3c:ab:ac:50:12:54:79:c6:0c:b7:6d:f7:c6:
                    7a:c6:c5:59:e3:ab:50:fc:4e:81:0a:4b:ad:20:db:
                    f3:68:c7:ee:10:4a:2d:25:c0:37:0c:06:01:8d:d8:
                    a8:16:06:be:07:dc:e8:4a:a9:f4:db:4a:fe:b1:45:
                    e4:f2:35:32:2b:8b:59:e3:7f:6a:69:e4:de:96:4d:
                    b6:2b:ef:2f:38:cb:bf:4a:5d:f6:e7:dd:8c:cf:2b:
                    ad:99:77:06:e2:39:3f:65:7b:cd:8a:10:25:2d:75:
                    ab:87:4d:5f:21:d6:46:fd:4d:96:05:2d:59:07:7b:
                    b4:19:89:0f:10:4b:1b:c0:3a:1e:77:de:c1:2f:65:
                    ce:d7:9c:d3:ad:d8:b1:02:9e:5a:bd:9d:f1:d6:25:
                    63:57
                Exponent: 65537 (0x10001)
        X509v3 extensions:
            X509v3 Basic Constraints: 
                CA:TRUE
            X509v3 Subject Key Identifier: 
                6A:F1:AB:78:10:E8:1C:D1:A4:59:EC:83:17:11:38:D6:54:6C:3C:9D
            X509v3 Authority Key Identifier: 
                12:E2:16:02:8E:E2:B8:1C:76:CF:99:F3:C2:30:60:59:EF:DA:F9:EC
    Signature Algorithm: sha256WithRSAEncryption
    Signature Value:
        9c:3f:b9:ed:a9:74:73:07:ad:f7:37:45:8d:79:f1:fb:1f:20:
        01:79:13:4f:ed:88:75:ad:fb:69:fc:13:cf:5c:9b:99:76:99:
        fa:26:9c:eb:7b:67:bc:10:af:7b:89:df:b2:3d:39:ca:b8:82:
        16:ad:96:4b:88:5e:00:39:a2:e1:33:2e:3f:10:f2:da:46:5f:
        e8:c8:16:2b:d2:dc:98:aa:db:ea:02:4f:4b:35:5f:be:6e:3b:
        13:de:8b:08:82:f7:43:8f:f1:c5:7f:85:ed:57:21:79:2b:02:
        0a:3a:88:d4:13:14:88:00:b3:84:c9:d1:56:2f:30:96:23:04:
        08:ef:65:9d:28:85:5a:3e:5f:08:bc:26:af:ea:d1:e1:1f:f1:
        46:84:29:75:59:fc:20:15:7b:7f:d8:e8:46:bc:98:f4:50:8b:
        d6:c4:be:c2:57:fa:99:bf:7e:c7:32:a7:72:99:47:5a:50:ed:
        ca:da:c6:ee:e2:b8:f0:ac:57:f1:05:af:e7:c7:5a:18:4b:dd:
        b0:97:fd:e0:00:f1:b0:cf:d7:58:02:6d:a9:e0:5a:81:78:d6:
        4d:20:b3:5b:a1:0e:87:0b:41:b3:f8:e7:ee:88:66:6b:86:95:
        5d:e6:76:8d:81:b8:25:cb:d4:6a:6e:3f:e8:dc:7a:b7:5b:fd:
        ca:36:00:06:02:bb:12:79:63:ea:32:69:f5:e2:ea:cb:5b:4d:
        d8:fc:32:6d:e2:07:ed:79:05:44:3b:d0:d7:0a:f5:18:03:b8:
        c1:2b:75:75:34:18:25:cc:ce:c7:c3:25:00:80:fb:4a:5c:27:
        8b:ee:a7:3c:96:8b:33:ea:02:05:00:dc:6a:f9:f9:1e:d5:aa:
        41:d7:1d:70:a2:52:0d:6d:8d:89:fc:54:21:0b:ef:c6:ba:c1:
        91:02:eb:9c:30:84:ac:cd:98:5f:02:64:98:e2:df:74:a9:6d:
        7c:11:92:ac:c0:98:18:bd:81:de:aa:ec:3e:49:bb:cf:64:97:
        18:af:d5:76:34:ae:74:3b:36:21:a7:eb:a8:f7:56:14:f2:1b:
        a0:3e:20:d0:37:79:47:00:8c:69:d4:8d:9b:2d:f0:9f:88:01:
        d3:38:4b:ca:a1:8e:fe:85:ad:6a:ce:26:de:63:3b:46:66:96:
        a5:44:29:a8:02:2c:b2:35:05:a6:48:f3:31:be:b1:0c:3c:7d:
        64:1c:b3:c6:7a:42:63:1e:c8:ab:e2:a3:b2:c0:c4:74:81:a6:
        36:33:e8:ea:5e:e8:c6:6f:ce:f7:93:ce:37:12:95:54:ce:54:
        ed:71:1e:22:b7:ee:d7:5b:66:3c:16:82:de:71:04:b0:34:f4:
        36:74:c3:ed:22:b1:03:83
-----BEGIN CERTIFICATE-----
MIIEqTCCApGgAwIBAgIUOVdtU0qBjBGMY+JA4/9mfxh/wFAwDQYJKoZIhvcNAQEL
BQAwgZExCzAJBgNVBAYTAlVTMQswCQYDVQQIDAJDQTEYMBYGA1UEBwwPU2FuIEx1
aXMgT2Jpc3BvMRswGQYDVQQKDBJJRkQzRiBUZWNobm9sb2dpZXMxGzAZBgNVBAMM
EklGRDNGIFRlY2hub2xvZ2llczEhMB8GCSqGSIb3DQEJARYSYXN0cmlkQGFzdHJp
ZC50ZWNoMB4XDTIzMDExOTA5NDA0MVoXDTI4MDExODA5NDA0MVowOTE3MDUGA1UE
AxMuSUZEM0YgVGVjaG5vbG9naWVzIEludGVybWVkaWF0ZSBBdXRob3JpdHkgMjAy
MzCCASIwDQYJKoZIhvcNAQEBBQADggEPADCCAQoCggEBAPFGd/yGsFdiA0dicNFT
799mcgC9YXBvm/eTMFirXiYIBevlTpl1z93RfI+gtDX7qwbbAywwJQEjO8sMpBwM
lxuxbF+fEh/wtr6/JH3fN9TPnDIitBPN1LlZrwRMnEEKaxfbdcHYMrUXMEM8q6xQ
ElR5xgy3bffGesbFWeOrUPxOgQpLrSDb82jH7hBKLSXANwwGAY3YqBYGvgfc6Eqp
9NtK/rFF5PI1MiuLWeN/amnk3pZNtivvLzjLv0pd9ufdjM8rrZl3BuI5P2V7zYoQ
JS11q4dNXyHWRv1NlgUtWQd7tBmJDxBLG8A6HnfewS9lztec063YsQKeWr2d8dYl
Y1cCAwEAAaNQME4wDAYDVR0TBAUwAwEB/zAdBgNVHQ4EFgQUavGreBDoHNGkWeyD
FxE41lRsPJ0wHwYDVR0jBBgwFoAUEuIWAo7iuBx2z5nzwjBgWe/a+ewwDQYJKoZI
hvcNAQELBQADggIBAJw/ue2pdHMHrfc3RY158fsfIAF5E0/tiHWt+2n8E89cm5l2
mfomnOt7Z7wQr3uJ37I9Ocq4ghatlkuIXgA5ouEzLj8Q8tpGX+jIFivS3Jiq2+oC
T0s1X75uOxPeiwiC90OP8cV/he1XIXkrAgo6iNQTFIgAs4TJ0VYvMJYjBAjvZZ0o
hVo+Xwi8Jq/q0eEf8UaEKXVZ/CAVe3/Y6Ea8mPRQi9bEvsJX+pm/fscyp3KZR1pQ
7craxu7iuPCsV/EFr+fHWhhL3bCX/eAA8bDP11gCbangWoF41k0gs1uhDocLQbP4
5+6IZmuGlV3mdo2BuCXL1GpuP+jcerdb/co2AAYCuxJ5Y+oyafXi6stbTdj8Mm3i
B+15BUQ70NcK9RgDuMErdXU0GCXMzsfDJQCA+0pcJ4vupzyWizPqAgUA3Gr5+R7V
qkHXHXCiUg1tjYn8VCEL78a6wZEC65wwhKzNmF8CZJji33SpbXwRkqzAmBi9gd6q
7D5Ju89klxiv1XY0rnQ7NiGn66j3VhTyG6A+INA3eUcAjGnUjZst8J+IAdM4S8qh
jv6FrWrOJt5jO0ZmlqVEKagCLLI1BaZI8zG+sQw8fWQcs8Z6QmMeyKvio7LAxHSB
pjYz6Ope6MZvzveTzjcSlVTOVO1xHiK37tdbZjwWgt5xBLA09DZ0w+0isQOD
-----END CERTIFICATE-----
