Certificate:
    Data:
        Version: 3 (0x2)
        Serial Number:
            28:14:1a:70:e7:63:69:46:84:25:ca:86:fc:1e:ef:4a:56:7d:db:f6
        Signature Algorithm: ecdsa-with-SHA256
        Issuer: C=US, ST=California, L=San Francisco, O=astrid dot tech, OU=DevSecAICatGoonGitChatOps, CN=Astertificate Root Certificate R.1, emailAddress=astrid@astrid.tech
        Validity
            Not Before: Jun  6 05:32:23 2026 GMT
            Not After : Aug  5 05:32:23 2045 GMT
        Subject: C=US, ST=California, L=San Francisco, O=astrid dot tech, OU=DevSecAICatGoonGitChatOps, CN=Astertificate Root Certificate R.1, emailAddress=astrid@astrid.tech
        Subject Public Key Info:
            Public Key Algorithm: id-ecPublicKey
                Public-Key: (256 bit)
                pub:
                    04:10:d2:6c:ac:52:22:84:98:18:82:b9:b5:08:c6:
                    ae:c2:30:1c:7e:e6:a8:6f:03:dd:5d:3e:52:2b:20:
                    92:1e:c4:71:32:b3:fc:7e:0a:88:46:3b:e9:5d:34:
                    bf:08:6b:ec:8f:80:0a:c3:6c:f4:f8:bc:e0:9e:be:
                    15:c0:b6:9d:ef
                ASN1 OID: prime256v1
                NIST CURVE: P-256
        X509v3 extensions:
            X509v3 Subject Key Identifier: 
                D8:F0:95:A6:3B:72:6B:5B:22:AD:41:83:EA:7C:90:18:99:CA:FE:14
            X509v3 Authority Key Identifier: 
                D8:F0:95:A6:3B:72:6B:5B:22:AD:41:83:EA:7C:90:18:99:CA:FE:14
            X509v3 Basic Constraints: critical
                CA:TRUE
            X509v3 Key Usage: critical
                Digital Signature, Certificate Sign, CRL Sign
    Signature Algorithm: ecdsa-with-SHA256
    Signature Value:
        30:46:02:21:00:d6:ec:65:cb:10:46:3b:2c:b7:7f:e4:c6:f8:
        95:dc:51:08:97:58:00:6c:72:7b:c9:2a:ef:4b:33:ba:21:c5:
        b4:02:21:00:85:42:57:85:03:a5:3b:e9:b6:c8:a2:6b:26:33:
        f3:84:9a:cd:bd:9e:8a:49:53:bb:63:61:10:87:aa:0f:c4:1c
-----BEGIN CERTIFICATE-----
MIIC+DCCAp2gAwIBAgIUKBQacOdjaUaEJcqG/B7vSlZ92/YwCgYIKoZIzj0EAwIw
gcgxCzAJBgNVBAYTAlVTMRMwEQYDVQQIDApDYWxpZm9ybmlhMRYwFAYDVQQHDA1T
YW4gRnJhbmNpc2NvMRgwFgYDVQQKDA9hc3RyaWQgZG90IHRlY2gxIjAgBgNVBAsM
GURldlNlY0FJQ2F0R29vbkdpdENoYXRPcHMxKzApBgNVBAMMIkFzdGVydGlmaWNh
dGUgUm9vdCBDZXJ0aWZpY2F0ZSBSLjExITAfBgkqhkiG9w0BCQEWEmFzdHJpZEBh
c3RyaWQudGVjaDAeFw0yNjA2MDYwNTMyMjNaFw00NTA4MDUwNTMyMjNaMIHIMQsw
CQYDVQQGEwJVUzETMBEGA1UECAwKQ2FsaWZvcm5pYTEWMBQGA1UEBwwNU2FuIEZy
YW5jaXNjbzEYMBYGA1UECgwPYXN0cmlkIGRvdCB0ZWNoMSIwIAYDVQQLDBlEZXZT
ZWNBSUNhdEdvb25HaXRDaGF0T3BzMSswKQYDVQQDDCJBc3RlcnRpZmljYXRlIFJv
b3QgQ2VydGlmaWNhdGUgUi4xMSEwHwYJKoZIhvcNAQkBFhJhc3RyaWRAYXN0cmlk
LnRlY2gwWTATBgcqhkjOPQIBBggqhkjOPQMBBwNCAAQQ0mysUiKEmBiCubUIxq7C
MBx+5qhvA91dPlIrIJIexHEys/x+CohGO+ldNL8Ia+yPgArDbPT4vOCevhXAtp3v
o2MwYTAdBgNVHQ4EFgQU2PCVpjtya1sirUGD6nyQGJnK/hQwHwYDVR0jBBgwFoAU
2PCVpjtya1sirUGD6nyQGJnK/hQwDwYDVR0TAQH/BAUwAwEB/zAOBgNVHQ8BAf8E
BAMCAYYwCgYIKoZIzj0EAwIDSQAwRgIhANbsZcsQRjsst3/kxviV3FEIl1gAbHJ7
ySrvSzO6IcW0AiEAhUJXhQOlO+m2yKJrJjPzhJrNvZ6KSVO7Y2EQh6oPxBw=
-----END CERTIFICATE-----
